target datalayout = "e-m:e-p270:32:32-p271:32:32-p272:64:64-i64:64-i128:128-f80:128-n8:16:32:64-S128"
target triple = "x86_64-unknown-linux-gnu"

%"struct.llvh::itanium_demangle::Db" = type { ptr, ptr, %"class.llvh::itanium_demangle::PODSmallVector", %"class.llvh::itanium_demangle::PODSmallVector", %"class.llvh::itanium_demangle::PODSmallVector.0", %"class.llvh::itanium_demangle::PODSmallVector.1", ptr, ptr, i8, i8, i8, [13 x i8], %"class.(anonymous namespace)::DefaultAllocator" }
%"class.llvh::itanium_demangle::PODSmallVector" = type { ptr, ptr, ptr, [32 x ptr] }
%"class.llvh::itanium_demangle::PODSmallVector.0" = type { ptr, ptr, ptr, [8 x ptr] }
%"class.llvh::itanium_demangle::PODSmallVector.1" = type { ptr, ptr, ptr, [4 x ptr] }
%"class.(anonymous namespace)::DefaultAllocator" = type { %"class.(anonymous namespace)::BumpPointerAllocator" }
%"class.(anonymous namespace)::BumpPointerAllocator" = type { [4096 x i8], ptr, [8 x i8] }
%class.StringView = type { ptr, ptr }
%"class.llvh::itanium_demangle::Node" = type <{ ptr, i8, i8, i8, i8, [4 x i8] }>
%"class.llvh::itanium_demangle::Node.base" = type <{ ptr, i8, i8, i8, i8 }>
%"struct.(anonymous namespace)::BumpPointerAllocator::BlockMeta" = type { ptr, i64 }
%"class.llvh::itanium_demangle::MemberExpr" = type { %"class.llvh::itanium_demangle::Node.base", ptr, %class.StringView, ptr }

; Function Attrs: mustprogress nounwind uwtable
define linkonce_odr hidden void @_ZN4llvh16itanium_demangle4NodeC2ENS1_4KindENS1_5CacheES3_S3_(ptr noundef nonnull align 8 dereferenceable(12) %this, i8 noundef zeroext %K_, i8 noundef zeroext %RHSComponentCache_, i8 noundef zeroext %ArrayCache_, i8 noundef zeroext %FunctionCache_) unnamed_addr #0 comdat align 2 {
entry:
  %this.addr = alloca ptr, align 8
  %K_.addr = alloca i8, align 1
  %RHSComponentCache_.addr = alloca i8, align 1
  %ArrayCache_.addr = alloca i8, align 1
  %FunctionCache_.addr = alloca i8, align 1
  store ptr %this, ptr %this.addr, align 8
  store i8 %K_, ptr %K_.addr, align 1
  store i8 %RHSComponentCache_, ptr %RHSComponentCache_.addr, align 1
  store i8 %ArrayCache_, ptr %ArrayCache_.addr, align 1
  store i8 %FunctionCache_, ptr %FunctionCache_.addr, align 1
  %this1 = load ptr, ptr %this.addr, align 8
  store ptr getelementptr inbounds ({ [11 x ptr] }, ptr @_ZTVN4llvh16itanium_demangle4NodeE, i32 0, i32 0, i32 2), ptr %this1, align 8
  %K = getelementptr inbounds %"class.llvh::itanium_demangle::Node", ptr %this1, i32 0, i32 1
  %0 = load i8, ptr %K_.addr, align 1
  store i8 %0, ptr %K, align 8
  %RHSComponentCache = getelementptr inbounds %"class.llvh::itanium_demangle::Node", ptr %this1, i32 0, i32 2
  %1 = load i8, ptr %RHSComponentCache_.addr, align 1
  store i8 %1, ptr %RHSComponentCache, align 1
  %ArrayCache = getelementptr inbounds %"class.llvh::itanium_demangle::Node", ptr %this1, i32 0, i32 3
  %2 = load i8, ptr %ArrayCache_.addr, align 1
  store i8 %2, ptr %ArrayCache, align 2
  %FunctionCache = getelementptr inbounds %"class.llvh::itanium_demangle::Node", ptr %this1, i32 0, i32 4
  %3 = load i8, ptr %FunctionCache_.addr, align 1
  store i8 %3, ptr %FunctionCache, align 1
  ret void
}

; Function Attrs: mustprogress nounwind uwtable
define internal void @_ZN12_GLOBAL__N_120BumpPointerAllocator4growEv(ptr noundef nonnull align 16 dereferenceable(4104) %this) #0 align 2 {
entry:
  %this.addr = alloca ptr, align 8
  %NewMeta = alloca ptr, align 8
  store ptr %this, ptr %this.addr, align 8
  %this1 = load ptr, ptr %this.addr, align 8
  %call = call noalias ptr @malloc(i64 noundef 4096) #14
  store ptr %call, ptr %NewMeta, align 8
  %0 = load ptr, ptr %NewMeta, align 8
  %cmp = icmp eq ptr %0, null
  br i1 %cmp, label %if.then, label %if.end

if.then:                                          ; preds = %entry
  call void @_ZSt9terminatev() #18
  unreachable

if.end:                                           ; preds = %entry
  %1 = load ptr, ptr %NewMeta, align 8
  %Next = getelementptr inbounds %"struct.(anonymous namespace)::BumpPointerAllocator::BlockMeta", ptr %1, i32 0, i32 0
  %BlockList = getelementptr inbounds %"class.(anonymous namespace)::BumpPointerAllocator", ptr %this1, i32 0, i32 1
  %2 = load ptr, ptr %BlockList, align 16
  store ptr %2, ptr %Next, align 8
  %Current = getelementptr inbounds %"struct.(anonymous namespace)::BumpPointerAllocator::BlockMeta", ptr %1, i32 0, i32 1
  store i64 0, ptr %Current, align 8
  %BlockList2 = getelementptr inbounds %"class.(anonymous namespace)::BumpPointerAllocator", ptr %this1, i32 0, i32 1
  store ptr %1, ptr %BlockList2, align 16
  ret void
}

; Function Attrs: mustprogress nounwind uwtable
define internal noundef ptr @_ZN12_GLOBAL__N_120BumpPointerAllocator15allocateMassiveEm(ptr noundef nonnull align 16 dereferenceable(4104) %this, i64 noundef %NBytes) #0 align 2 {
entry:
  %this.addr = alloca ptr, align 8
  %NBytes.addr = alloca i64, align 8
  %NewMeta = alloca ptr, align 8
  store ptr %this, ptr %this.addr, align 8
  store i64 %NBytes, ptr %NBytes.addr, align 8
  %this1 = load ptr, ptr %this.addr, align 8
  %0 = load i64, ptr %NBytes.addr, align 8
  %add = add i64 %0, 16
  store i64 %add, ptr %NBytes.addr, align 8
  %1 = load i64, ptr %NBytes.addr, align 8
  %call = call noalias ptr @malloc(i64 noundef %1) #14
  store ptr %call, ptr %NewMeta, align 8
  %2 = load ptr, ptr %NewMeta, align 8
  %cmp = icmp eq ptr %2, null
  br i1 %cmp, label %if.then, label %if.end

if.then:                                          ; preds = %entry
  call void @_ZSt9terminatev() #18
  unreachable

if.end:                                           ; preds = %entry
  %3 = load ptr, ptr %NewMeta, align 8
  %Next = getelementptr inbounds %"struct.(anonymous namespace)::BumpPointerAllocator::BlockMeta", ptr %3, i32 0, i32 0
  %BlockList = getelementptr inbounds %"class.(anonymous namespace)::BumpPointerAllocator", ptr %this1, i32 0, i32 1
  %4 = load ptr, ptr %BlockList, align 16
  %Next2 = getelementptr inbounds %"struct.(anonymous namespace)::BumpPointerAllocator::BlockMeta", ptr %4, i32 0, i32 0
  %5 = load ptr, ptr %Next2, align 8
  store ptr %5, ptr %Next, align 8
  %Current = getelementptr inbounds %"struct.(anonymous namespace)::BumpPointerAllocator::BlockMeta", ptr %3, i32 0, i32 1
  store i64 0, ptr %Current, align 8
  %BlockList3 = getelementptr inbounds %"class.(anonymous namespace)::BumpPointerAllocator", ptr %this1, i32 0, i32 1
  %6 = load ptr, ptr %BlockList3, align 16
  %Next4 = getelementptr inbounds %"struct.(anonymous namespace)::BumpPointerAllocator::BlockMeta", ptr %6, i32 0, i32 0
  store ptr %3, ptr %Next4, align 8
  %7 = load ptr, ptr %NewMeta, align 8
  %add.ptr = getelementptr inbounds %"struct.(anonymous namespace)::BumpPointerAllocator::BlockMeta", ptr %7, i64 1
  ret ptr %add.ptr
}

; Function Attrs: mustprogress nounwind uwtable
define linkonce_odr hidden void @_ZN4llvh16itanium_demangle10MemberExprC2EPKNS0_4NodeE10StringViewS4_(ptr noundef nonnull align 8 dereferenceable(48) %this, ptr noundef %LHS_, ptr %Kind_.coerce0, ptr %Kind_.coerce1, ptr noundef %RHS_) unnamed_addr #0 comdat align 2 {
entry:
  %Kind_ = alloca %class.StringView, align 8
  %this.addr = alloca ptr, align 8
  %LHS_.addr = alloca ptr, align 8
  %RHS_.addr = alloca ptr, align 8
  %0 = getelementptr inbounds { ptr, ptr }, ptr %Kind_, i32 0, i32 0
  store ptr %Kind_.coerce0, ptr %0, align 8
  %1 = getelementptr inbounds { ptr, ptr }, ptr %Kind_, i32 0, i32 1
  store ptr %Kind_.coerce1, ptr %1, align 8
  store ptr %this, ptr %this.addr, align 8
  store ptr %LHS_, ptr %LHS_.addr, align 8
  store ptr %RHS_, ptr %RHS_.addr, align 8
  %this1 = load ptr, ptr %this.addr, align 8
  call void @_ZN4llvh16itanium_demangle4NodeC2ENS1_4KindENS1_5CacheES3_S3_(ptr noundef nonnull align 8 dereferenceable(12) %this1, i8 noundef zeroext 46, i8 noundef zeroext 1, i8 noundef zeroext 1, i8 noundef zeroext 1)
  store ptr getelementptr inbounds ({ [11 x ptr] }, ptr @_ZTVN4llvh16itanium_demangle10MemberExprE, i32 0, i32 0, i32 2), ptr %this1, align 8
  %LHS = getelementptr inbounds %"class.llvh::itanium_demangle::MemberExpr", ptr %this1, i32 0, i32 1
  %2 = load ptr, ptr %LHS_.addr, align 8
  store ptr %2, ptr %LHS, align 8
  %Kind = getelementptr inbounds %"class.llvh::itanium_demangle::MemberExpr", ptr %this1, i32 0, i32 2
  call void @llvm.memcpy.p0.p0.i64(ptr align 8 %Kind, ptr align 8 %Kind_, i64 16, i1 false)
  %RHS = getelementptr inbounds %"class.llvh::itanium_demangle::MemberExpr", ptr %this1, i32 0, i32 3
  %3 = load ptr, ptr %RHS_.addr, align 8
  store ptr %3, ptr %RHS, align 8
  ret void
}

; Function Attrs: mustprogress nounwind uwtable
define linkonce_odr hidden void @_ZN10StringViewC2EPKc(ptr noundef nonnull align 8 dereferenceable(16) %this, ptr noundef %Str) unnamed_addr #0 comdat align 2 {
entry:
  %this.addr = alloca ptr, align 8
  %Str.addr = alloca ptr, align 8
  store ptr %this, ptr %this.addr, align 8
  store ptr %Str, ptr %Str.addr, align 8
  %this1 = load ptr, ptr %this.addr, align 8
  %First = getelementptr inbounds %class.StringView, ptr %this1, i32 0, i32 0
  %0 = load ptr, ptr %Str.addr, align 8
  store ptr %0, ptr %First, align 8
  %Last = getelementptr inbounds %class.StringView, ptr %this1, i32 0, i32 1
  %1 = load ptr, ptr %Str.addr, align 8
  %2 = load ptr, ptr %Str.addr, align 8
  %call = call i64 @strlen(ptr noundef %2) #12
  %add.ptr = getelementptr inbounds i8, ptr %1, i64 %call
  store ptr %add.ptr, ptr %Last, align 8
  ret void
}

; Function Attrs: mustprogress nounwind uwtable
define internal noundef ptr @_ZN12_GLOBAL__N_120BumpPointerAllocator8allocateEm(ptr noundef nonnull align 16 dereferenceable(4104) %this, i64 noundef %N) #0 align 2 {
entry:
  %retval = alloca ptr, align 8
  %this.addr = alloca ptr, align 8
  %N.addr = alloca i64, align 8
  store ptr %this, ptr %this.addr, align 8
  store i64 %N, ptr %N.addr, align 8
  %this1 = load ptr, ptr %this.addr, align 8
  %0 = load i64, ptr %N.addr, align 8
  %add = add i64 %0, 15
  %and = and i64 %add, 4294967280
  store i64 %and, ptr %N.addr, align 8
  %1 = load i64, ptr %N.addr, align 8
  %BlockList = getelementptr inbounds %"class.(anonymous namespace)::BumpPointerAllocator", ptr %this1, i32 0, i32 1
  %2 = load ptr, ptr %BlockList, align 16
  %Current = getelementptr inbounds %"struct.(anonymous namespace)::BumpPointerAllocator::BlockMeta", ptr %2, i32 0, i32 1
  %3 = load i64, ptr %Current, align 8
  %add2 = add i64 %1, %3
  %cmp = icmp uge i64 %add2, 4080
  br i1 %cmp, label %if.then, label %if.end5

if.then:                                          ; preds = %entry
  %4 = load i64, ptr %N.addr, align 8
  %cmp3 = icmp ugt i64 %4, 4080
  br i1 %cmp3, label %if.then4, label %if.end

if.then4:                                         ; preds = %if.then
  %5 = load i64, ptr %N.addr, align 8
  %call = call noundef ptr @_ZN12_GLOBAL__N_120BumpPointerAllocator15allocateMassiveEm(ptr noundef nonnull align 16 dereferenceable(4104) %this1, i64 noundef %5)
  store ptr %call, ptr %retval, align 8
  br label %return

if.end:                                           ; preds = %if.then
  call void @_ZN12_GLOBAL__N_120BumpPointerAllocator4growEv(ptr noundef nonnull align 16 dereferenceable(4104) %this1)
  br label %if.end5

if.end5:                                          ; preds = %if.end, %entry
  %6 = load i64, ptr %N.addr, align 8
  %BlockList6 = getelementptr inbounds %"class.(anonymous namespace)::BumpPointerAllocator", ptr %this1, i32 0, i32 1
  %7 = load ptr, ptr %BlockList6, align 16
  %Current7 = getelementptr inbounds %"struct.(anonymous namespace)::BumpPointerAllocator::BlockMeta", ptr %7, i32 0, i32 1
  %8 = load i64, ptr %Current7, align 8
  %add8 = add i64 %8, %6
  store i64 %add8, ptr %Current7, align 8
  %BlockList9 = getelementptr inbounds %"class.(anonymous namespace)::BumpPointerAllocator", ptr %this1, i32 0, i32 1
  %9 = load ptr, ptr %BlockList9, align 16
  %add.ptr = getelementptr inbounds %"struct.(anonymous namespace)::BumpPointerAllocator::BlockMeta", ptr %9, i64 1
  %BlockList10 = getelementptr inbounds %"class.(anonymous namespace)::BumpPointerAllocator", ptr %this1, i32 0, i32 1
  %10 = load ptr, ptr %BlockList10, align 16
  %Current11 = getelementptr inbounds %"struct.(anonymous namespace)::BumpPointerAllocator::BlockMeta", ptr %10, i32 0, i32 1
  %11 = load i64, ptr %Current11, align 8
  %add.ptr12 = getelementptr inbounds i8, ptr %add.ptr, i64 %11
  %12 = load i64, ptr %N.addr, align 8
  %idx.neg = sub i64 0, %12
  %add.ptr13 = getelementptr inbounds i8, ptr %add.ptr12, i64 %idx.neg
  store ptr %add.ptr13, ptr %retval, align 8
  br label %return

return:                                           ; preds = %if.end5, %if.then4
  %13 = load ptr, ptr %retval, align 8
  ret ptr %13
}

; Function Attrs: mustprogress nounwind uwtable
define internal noundef ptr @_ZN12_GLOBAL__N_116DefaultAllocator8makeNodeIN4llvh16itanium_demangle10MemberExprEJRPNS3_4NodeERA2_KcS7_EEEPT_DpOT0_(ptr noundef nonnull align 16 dereferenceable(4112) %this, ptr noundef nonnull align 8 dereferenceable(8) %args, ptr noundef nonnull align 1 dereferenceable(2) %args1, ptr noundef nonnull align 8 dereferenceable(8) %args3) #0 align 2 {
entry:
  %this.addr = alloca ptr, align 8
  %args.addr = alloca ptr, align 8
  %args.addr2 = alloca ptr, align 8
  %args.addr4 = alloca ptr, align 8
  %agg.tmp = alloca %class.StringView, align 8
  store ptr %this, ptr %this.addr, align 8
  store ptr %args, ptr %args.addr, align 8
  store ptr %args1, ptr %args.addr2, align 8
  store ptr %args3, ptr %args.addr4, align 8
  %this5 = load ptr, ptr %this.addr, align 8
  %Alloc = getelementptr inbounds %"class.(anonymous namespace)::DefaultAllocator", ptr %this5, i32 0, i32 0
  %call = call noundef ptr @_ZN12_GLOBAL__N_120BumpPointerAllocator8allocateEm(ptr noundef nonnull align 16 dereferenceable(4104) %Alloc, i64 noundef 48)
  %0 = load ptr, ptr %args.addr, align 8
  %1 = load ptr, ptr %0, align 8
  %2 = load ptr, ptr %args.addr2, align 8
  %arraydecay = getelementptr inbounds [2 x i8], ptr %2, i64 0, i64 0
  call void @_ZN10StringViewC2EPKc(ptr noundef nonnull align 8 dereferenceable(16) %agg.tmp, ptr noundef %arraydecay)
  %3 = load ptr, ptr %args.addr4, align 8
  %4 = load ptr, ptr %3, align 8
  %5 = getelementptr inbounds { ptr, ptr }, ptr %agg.tmp, i32 0, i32 0
  %6 = load ptr, ptr %5, align 8
  %7 = getelementptr inbounds { ptr, ptr }, ptr %agg.tmp, i32 0, i32 1
  %8 = load ptr, ptr %7, align 8
  call void @_ZN4llvh16itanium_demangle10MemberExprC2EPKNS0_4NodeE10StringViewS4_(ptr noundef nonnull align 8 dereferenceable(48) %call, ptr noundef %1, ptr %6, ptr %8, ptr noundef %4)
  ret ptr %call
}

; Function Attrs: mustprogress nounwind uwtable
define internal noundef ptr @_ZN4llvh16itanium_demangle2DbIN12_GLOBAL__N_116DefaultAllocatorEE4makeINS0_10MemberExprEJRPNS0_4NodeERA2_KcS9_EEES8_DpOT0_(ptr noundef nonnull align 16 dereferenceable(4864) %this, ptr noundef nonnull align 8 dereferenceable(8) %args, ptr noundef nonnull align 1 dereferenceable(2) %args1, ptr noundef nonnull align 8 dereferenceable(8) %args3) #0 align 2 {
entry:
  %this.addr = alloca ptr, align 8
  %args.addr = alloca ptr, align 8
  %args.addr2 = alloca ptr, align 8
  %args.addr4 = alloca ptr, align 8
  store ptr %this, ptr %this.addr, align 8
  store ptr %args, ptr %args.addr, align 8
  store ptr %args1, ptr %args.addr2, align 8
  store ptr %args3, ptr %args.addr4, align 8
  %this5 = load ptr, ptr %this.addr, align 8
  %ASTAllocator = getelementptr inbounds %"struct.llvh::itanium_demangle::Db", ptr %this5, i32 0, i32 12
  %0 = load ptr, ptr %args.addr, align 8
  %1 = load ptr, ptr %args.addr2, align 8
  %2 = load ptr, ptr %args.addr4, align 8
  %call = call noundef ptr @_ZN12_GLOBAL__N_116DefaultAllocator8makeNodeIN4llvh16itanium_demangle10MemberExprEJRPNS3_4NodeERA2_KcS7_EEEPT_DpOT0_(ptr noundef nonnull align 16 dereferenceable(4112) %ASTAllocator, ptr noundef nonnull align 8 dereferenceable(8) %0, ptr noundef nonnull align 1 dereferenceable(2) %1, ptr noundef nonnull align 8 dereferenceable(8) %2)
  ret ptr %call
}